; Function Attrs: nounwind uwtable
define hidden void @awt_allocate_systemrgbcolors(ptr nocapture noundef readonly %0, i32 noundef %1, ptr nocapture noundef readonly %2) local_unnamed_addr #6 {
  %4 = icmp sgt i32 %1, 0
  br i1 %4, label %.lr.ph, label %._crit_edge

.lr.ph:                                           ; preds = %3
  %5 = getelementptr inbounds i8, ptr %2, i64 8
  %wide.trip.count = zext nneg i32 %1 to i64
  br label %6

6:                                                ; preds = %.lr.ph, %6
  %indvars.iv = phi i64 [ 0, %.lr.ph ], [ %indvars.iv.next, %6 ]
  %7 = load ptr, ptr @awt_display, align 8
  %8 = load i64, ptr %5, align 8
  %9 = getelementptr inbounds i32, ptr %0, i64 %indvars.iv
  %10 = load i32, ptr %9, align 4
  %11 = lshr i32 %10, 16
  %12 = and i32 %11, 255
  %13 = lshr i32 %10, 8
  %14 = and i32 %13, 255
  %15 = and i32 %10, 255
  %16 = tail call fastcc i32 @alloc_col(ptr noundef %7, i64 noundef %8, i32 noundef %12, i32 noundef %14, i32 noundef %15, i32 noundef -1, ptr noundef %2)
  %indvars.iv.next = add nuw nsw i64 %indvars.iv, 1
  %exitcond.not = icmp eq i64 %indvars.iv.next, %wide.trip.count
  br i1 %exitcond.not, label %._crit_edge, label %6, !llvm.loop !37

._crit_edge:                                      ; preds = %6, %3
  ret void
}